target datalayout = "e-m:e-p270:32:32-p271:32:32-p272:64:64-i64:64-i128:128-f80:128-n8:16:32:64-S128"
target triple = "x86_64-pc-linux-gnu"

%struct.ImGuiMenuColumns = type <{ i32, i32, i16, i16, i16, i16, i16, [4 x i16], [2 x i8] }>

; Function Attrs: mustprogress nounwind uwtable
define dso_local void @_ZN16ImGuiMenuColumns18CalcNextTotalWidthEb(ptr noundef nonnull align 4 dereferenceable(26) %0, i1 noundef zeroext %1) #4 align 2 {
  %3 = alloca ptr, align 8
  %4 = alloca i8, align 1
  %5 = alloca i16, align 2
  %6 = alloca i8, align 1
  %7 = alloca i32, align 4
  %8 = alloca i16, align 2
  store ptr %0, ptr %3, align 8, !tbaa !752
  %9 = zext i1 %1 to i8
  store i8 %9, ptr %4, align 1, !tbaa !67
  %10 = load ptr, ptr %3, align 8
  call void @llvm.lifetime.start.p0(i64 2, ptr %5) #17
  store i16 0, ptr %5, align 2, !tbaa !205
  call void @llvm.lifetime.start.p0(i64 1, ptr %6) #17
  store i8 0, ptr %6, align 1, !tbaa !67
  call void @llvm.lifetime.start.p0(i64 4, ptr %7) #17
  store i32 0, ptr %7, align 4, !tbaa !9
  br label %11

11:                                               ; preds = %74, %2
  %12 = load i32, ptr %7, align 4, !tbaa !9
  %13 = icmp slt i32 %12, 4
  br i1 %13, label %15, label %14

14:                                               ; preds = %11
  call void @llvm.lifetime.end.p0(i64 4, ptr %7) #17
  br label %77

15:                                               ; preds = %11
  call void @llvm.lifetime.start.p0(i64 2, ptr %8) #17
  %16 = getelementptr inbounds nuw %struct.ImGuiMenuColumns, ptr %10, i32 0, i32 7
  %17 = load i32, ptr %7, align 4, !tbaa !9
  %18 = sext i32 %17 to i64
  %19 = getelementptr inbounds [4 x i16], ptr %16, i64 0, i64 %18
  %20 = load i16, ptr %19, align 2, !tbaa !205
  store i16 %20, ptr %8, align 2, !tbaa !205
  %21 = load i8, ptr %6, align 1, !tbaa !67, !range !59, !noundef !60
  %22 = trunc i8 %21 to i1
  br i1 %22, label %23, label %35

23:                                               ; preds = %15
  %24 = load i16, ptr %8, align 2, !tbaa !205
  %25 = zext i16 %24 to i32
  %26 = icmp sgt i32 %25, 0
  br i1 %26, label %27, label %35

27:                                               ; preds = %23
  %28 = getelementptr inbounds nuw %struct.ImGuiMenuColumns, ptr %10, i32 0, i32 2
  %29 = load i16, ptr %28, align 4, !tbaa !754
  %30 = zext i16 %29 to i32
  %31 = load i16, ptr %5, align 2, !tbaa !205
  %32 = zext i16 %31 to i32
  %33 = add nsw i32 %32, %30
  %34 = trunc i32 %33 to i16
  store i16 %34, ptr %5, align 2, !tbaa !205
  br label %35

35:                                               ; preds = %27, %23, %15
  %36 = load i16, ptr %8, align 2, !tbaa !205
  %37 = zext i16 %36 to i32
  %38 = icmp sgt i32 %37, 0
  %39 = zext i1 %38 to i32
  %40 = load i8, ptr %6, align 1, !tbaa !67, !range !59, !noundef !60
  %41 = trunc i8 %40 to i1
  %42 = zext i1 %41 to i32
  %43 = or i32 %42, %39
  %44 = icmp ne i32 %43, 0
  %45 = zext i1 %44 to i8
  store i8 %45, ptr %6, align 1, !tbaa !67
  %46 = load i8, ptr %4, align 1, !tbaa !67, !range !59, !noundef !60
  %47 = trunc i8 %46 to i1
  br i1 %47, label %48, label %67

48:                                               ; preds = %35
  %49 = load i32, ptr %7, align 4, !tbaa !9
  %50 = icmp eq i32 %49, 1
  br i1 %50, label %51, label %54

51:                                               ; preds = %48
  %52 = load i16, ptr %5, align 2, !tbaa !205
  %53 = getelementptr inbounds nuw %struct.ImGuiMenuColumns, ptr %10, i32 0, i32 4
  store i16 %52, ptr %53, align 4, !tbaa !757
  br label %54

54:                                               ; preds = %51, %48
  %55 = load i32, ptr %7, align 4, !tbaa !9
  %56 = icmp eq i32 %55, 2
  br i1 %56, label %57, label %60

57:                                               ; preds = %54
  %58 = load i16, ptr %5, align 2, !tbaa !205
  %59 = getelementptr inbounds nuw %struct.ImGuiMenuColumns, ptr %10, i32 0, i32 5
  store i16 %58, ptr %59, align 2, !tbaa !758
  br label %60

60:                                               ; preds = %57, %54
  %61 = load i32, ptr %7, align 4, !tbaa !9
  %62 = icmp eq i32 %61, 3
  br i1 %62, label %63, label %66

63:                                               ; preds = %60
  %64 = load i16, ptr %5, align 2, !tbaa !205
  %65 = getelementptr inbounds nuw %struct.ImGuiMenuColumns, ptr %10, i32 0, i32 6
  store i16 %64, ptr %65, align 4, !tbaa !759
  br label %66

66:                                               ; preds = %63, %60
  br label %67

67:                                               ; preds = %66, %35
  %68 = load i16, ptr %8, align 2, !tbaa !205
  %69 = zext i16 %68 to i32
  %70 = load i16, ptr %5, align 2, !tbaa !205
  %71 = zext i16 %70 to i32
  %72 = add nsw i32 %71, %69
  %73 = trunc i32 %72 to i16
  store i16 %73, ptr %5, align 2, !tbaa !205
  call void @llvm.lifetime.end.p0(i64 2, ptr %8) #17
  br label %74

74:                                               ; preds = %67
  %75 = load i32, ptr %7, align 4, !tbaa !9
  %76 = add nsw i32 %75, 1
  store i32 %76, ptr %7, align 4, !tbaa !9
  br label %11, !llvm.loop !760

77:                                               ; preds = %14
  %78 = load i16, ptr %5, align 2, !tbaa !205
  %79 = zext i16 %78 to i32
  %80 = getelementptr inbounds nuw %struct.ImGuiMenuColumns, ptr %10, i32 0, i32 1
  store i32 %79, ptr %80, align 4, !tbaa !755
  call void @llvm.lifetime.end.p0(i64 1, ptr %6) #17
  call void @llvm.lifetime.end.p0(i64 2, ptr %5) #17
  ret void
}