; Function Attrs: mustprogress nofree norecurse nosync nounwind memory(argmem: readwrite) uwtable
define dso_local void @_ZN16ImGuiMenuColumns18CalcNextTotalWidthEb(ptr noundef nonnull align 4 captures(none) dereferenceable(26) %0, i1 noundef zeroext %1) local_unnamed_addr #17 align 2 {
  %3 = getelementptr inbounds nuw i8, ptr %0, i64 18
  %4 = getelementptr inbounds nuw i8, ptr %0, i64 8
  %5 = load i16, ptr %4, align 4
  %6 = getelementptr inbounds nuw i8, ptr %0, i64 16
  %7 = getelementptr inbounds nuw i8, ptr %0, i64 14
  %8 = getelementptr inbounds nuw i8, ptr %0, i64 12
  br i1 %1, label %.split.us, label %.split

.split.us:                                        ; preds = %2, %18
  %indvars.iv29 = phi i64 [ %indvars.iv.next30, %18 ], [ 0, %2 ]
  %.024.us = phi i16 [ %19, %18 ], [ 0, %2 ]
  %.02122.us = phi i1 [ %13, %18 ], [ false, %2 ]
  %9 = getelementptr inbounds nuw [4 x i16], ptr %3, i64 0, i64 %indvars.iv29
  %10 = load i16, ptr %9, align 2, !tbaa !189
  %11 = icmp ne i16 %10, 0
  %or.cond.us = select i1 %.02122.us, i1 %11, i1 false
  %12 = select i1 %or.cond.us, i16 %5, i16 0
  %.1.us = add i16 %12, %.024.us
  %13 = or i1 %.02122.us, %11
  %14 = trunc nuw nsw i64 %indvars.iv29 to i32
  switch i32 %14, label %18 [
    i32 1, label %17
    i32 2, label %16
    i32 3, label %15
  ]

15:                                               ; preds = %.split.us
  store i16 %.1.us, ptr %6, align 4, !tbaa !663
  br label %18

16:                                               ; preds = %.split.us
  store i16 %.1.us, ptr %7, align 2, !tbaa !664
  br label %18

17:                                               ; preds = %.split.us
  store i16 %.1.us, ptr %8, align 4, !tbaa !665
  br label %18

18:                                               ; preds = %17, %16, %15, %.split.us
  %19 = add i16 %.1.us, %10
  %indvars.iv.next30 = add nuw nsw i64 %indvars.iv29, 1
  %exitcond31.not = icmp eq i64 %indvars.iv.next30, 4
  br i1 %exitcond31.not, label %.split26.us, label %.split.us, !llvm.loop !666

.split26.us:                                      ; preds = %.split, %18
  %.us-phi = phi i16 [ %19, %18 ], [ %27, %.split ]
  %20 = zext i16 %.us-phi to i32
  %21 = getelementptr inbounds nuw i8, ptr %0, i64 4
  store i32 %20, ptr %21, align 4, !tbaa !668
  ret void

.split:                                           ; preds = %2, %.split
  %indvars.iv = phi i64 [ %indvars.iv.next, %.split ], [ 0, %2 ]
  %.024 = phi i16 [ %27, %.split ], [ 0, %2 ]
  %.02122 = phi i1 [ %26, %.split ], [ false, %2 ]
  %22 = getelementptr inbounds nuw [4 x i16], ptr %3, i64 0, i64 %indvars.iv
  %23 = load i16, ptr %22, align 2, !tbaa !189
  %24 = icmp ne i16 %23, 0
  %or.cond = select i1 %.02122, i1 %24, i1 false
  %25 = select i1 %or.cond, i16 %5, i16 0
  %.1 = add i16 %25, %.024
  %26 = or i1 %.02122, %24
  %27 = add i16 %.1, %23
  %indvars.iv.next = add nuw nsw i64 %indvars.iv, 1
  %exitcond.not = icmp eq i64 %indvars.iv.next, 4
  br i1 %exitcond.not, label %.split26.us, label %.split, !llvm.loop !666
}